target datalayout = "e-m:e-p270:32:32-p271:32:32-p272:64:64-i64:64-i128:128-f80:128-n8:16:32:64-S128"
target triple = "x86_64-pc-linux-gnu"

@.str.4 = private unnamed_addr constant [17 x i8] c"ieee1722.subtype\00", align 1
@proto_register_1722.ett = internal global [1 x ptr] [ptr @ett_1722], align 8
@.str.13 = private unnamed_addr constant [48 x i8] c"IEEE 1722 Audio Video Transport Protocol (AVTP)\00", align 1
@.str.14 = private unnamed_addr constant [9 x i8] c"IEEE1722\00", align 1
@.str.15 = private unnamed_addr constant [9 x i8] c"ieee1722\00", align 1
@proto_1722 = internal global i32 0, align 4
@.str.16 = private unnamed_addr constant [22 x i8] c"IEEE1722 AVTP Subtype\00", align 1
@avb_dissector_table = internal global ptr null, align 8
@.str.17 = private unnamed_addr constant [13 x i8] c"ieee1722.eth\00", align 1
@avtp_handle_eth = internal global ptr null, align 8
@.str.18 = private unnamed_addr constant [13 x i8] c"ieee1722.udp\00", align 1
@avtp_handle_udp = internal global ptr null, align 8

; Function Attrs: null_pointer_is_valid sspstrong uwtable
define hidden void @proto_register_1722() #0 {
  %1 = alloca ptr, align 8
  call void @llvm.lifetime.start.p0(i64 8, ptr %1) #9
  %2 = call i32 @proto_register_protocol(ptr noundef @.str.13, ptr noundef @.str.14, ptr noundef @.str.15)
  store i32 %2, ptr @proto_1722, align 4
  %3 = load i32, ptr @proto_1722, align 4
  call void @proto_register_field_array(i32 noundef %3, ptr noundef @proto_register_1722.hf, i32 noundef 4)
  call void @proto_register_subtree_array(ptr noundef @proto_register_1722.ett, i32 noundef 1)
  %4 = load i32, ptr @proto_1722, align 4
  %5 = call ptr @expert_register_protocol(i32 noundef %4)
  store ptr %5, ptr %1, align 8
  %6 = load ptr, ptr %1, align 8
  call void @expert_register_field_array(ptr noundef %6, ptr noundef @proto_register_1722.ei, i32 noundef 2)
  %7 = load i32, ptr @proto_1722, align 4
  %8 = call ptr @register_dissector_table(ptr noundef @.str.4, ptr noundef @.str.16, i32 noundef %7, i32 noundef 4, i32 noundef 2)
  store ptr %8, ptr @avb_dissector_table, align 8
  %9 = load i32, ptr @proto_1722, align 4
  %10 = call ptr @register_dissector(ptr noundef @.str.17, ptr noundef @dissect_1722_eth, i32 noundef %9)
  store ptr %10, ptr @avtp_handle_eth, align 8
  %11 = load i32, ptr @proto_1722, align 4
  %12 = call ptr @register_dissector(ptr noundef @.str.18, ptr noundef @dissect_1722_udp, i32 noundef %11)
  store ptr %12, ptr @avtp_handle_udp, align 8
  call void @llvm.lifetime.end.p0(i64 8, ptr %1) #9
  ret void
}