; Function Attrs: null_pointer_is_valid sspstrong uwtable
define hidden void @proto_register_1722() local_unnamed_addr #0 {
  %1 = tail call i32 @proto_register_protocol(ptr noundef nonnull @.str.13, ptr noundef nonnull @.str.14, ptr noundef nonnull @.str.15)
  store i32 %1, ptr @proto_1722, align 4
  tail call void @proto_register_field_array(i32 noundef %1, ptr noundef nonnull @proto_register_1722.hf, i32 noundef 4)
  tail call void @proto_register_subtree_array(ptr noundef nonnull @proto_register_1722.ett, i32 noundef 1)
  %2 = load i32, ptr @proto_1722, align 4
  %3 = tail call ptr @expert_register_protocol(i32 noundef %2)
  tail call void @expert_register_field_array(ptr noundef %3, ptr noundef nonnull @proto_register_1722.ei, i32 noundef 2)
  %4 = load i32, ptr @proto_1722, align 4
  %5 = tail call ptr @register_dissector_table(ptr noundef nonnull @.str.4, ptr noundef nonnull @.str.16, i32 noundef %4, i32 noundef 4, i32 noundef 2)
  store ptr %5, ptr @avb_dissector_table, align 8
  %6 = load i32, ptr @proto_1722, align 4
  %7 = tail call ptr @register_dissector(ptr noundef nonnull @.str.17, ptr noundef nonnull @dissect_1722_eth, i32 noundef %6)
  store ptr %7, ptr @avtp_handle_eth, align 8
  %8 = load i32, ptr @proto_1722, align 4
  %9 = tail call ptr @register_dissector(ptr noundef nonnull @.str.18, ptr noundef nonnull @dissect_1722_udp, i32 noundef %8)
  store ptr %9, ptr @avtp_handle_udp, align 8
  ret void
}